target datalayout = "e-m:e-p270:32:32-p271:32:32-p272:64:64-i64:64-i128:128-f80:128-n8:16:32:64-S128"
target triple = "x86_64-pc-linux-gnu"

%struct.AVFilterFormatsConfig = type { ptr, ptr, ptr, ptr, ptr }
%struct.AVFilterLink = type { ptr, ptr, ptr, ptr, i32, i32, i32, i32, %struct.AVRational, i32, i32, i32, %struct.AVChannelLayout, %struct.AVRational, ptr, i32, %struct.AVFilterFormatsConfig, %struct.AVFilterFormatsConfig }
%struct.AVChannelLayout = type { i32, i32, %union.anon.1, ptr }
%union.anon.1 = type { i64 }
%struct.AVRational = type { i32, i32 }

; Function Attrs: inlinehint nounwind uwtable
define internal i64 @av_make_q(i32 noundef %0, i32 noundef %1) #9 {
  %3 = alloca %struct.AVRational, align 4
  %4 = alloca i32, align 4
  %5 = alloca i32, align 4
  store i32 %0, ptr %4, align 4, !tbaa !29
  store i32 %1, ptr %5, align 4, !tbaa !29
  %6 = getelementptr inbounds nuw %struct.AVRational, ptr %3, i32 0, i32 0
  %7 = load i32, ptr %4, align 4, !tbaa !29
  store i32 %7, ptr %6, align 4, !tbaa !121
  %8 = getelementptr inbounds nuw %struct.AVRational, ptr %3, i32 0, i32 1
  %9 = load i32, ptr %5, align 4, !tbaa !29
  store i32 %9, ptr %8, align 4, !tbaa !122
  %10 = load i64, ptr %3, align 4
  ret i64 %10
}

; Function Attrs: nounwind uwtable
define internal i32 @config_output(ptr noundef %0) #0 {
  %2 = alloca ptr, align 8
  %3 = alloca %struct.AVRational, align 4
  store ptr %0, ptr %2, align 8, !tbaa !36
  %4 = load ptr, ptr %2, align 8, !tbaa !36
  %5 = getelementptr inbounds nuw %struct.AVFilterLink, ptr %4, i32 0, i32 7
  store i32 16, ptr %5, align 4, !tbaa !73
  %6 = load ptr, ptr %2, align 8, !tbaa !36
  %7 = getelementptr inbounds nuw %struct.AVFilterLink, ptr %6, i32 0, i32 6
  store i32 16, ptr %7, align 8, !tbaa !72
  %8 = load ptr, ptr %2, align 8, !tbaa !36
  %9 = getelementptr inbounds nuw %struct.AVFilterLink, ptr %8, i32 0, i32 8
  call void @llvm.lifetime.start.p0(i64 8, ptr %3) #10
  %10 = call i64 @av_make_q(i32 noundef 1, i32 noundef 1)
  store i64 %10, ptr %3, align 4
  call void @llvm.memcpy.p0.p0.i64(ptr align 8 %9, ptr align 4 %3, i64 8, i1 false), !tbaa.struct !120
  call void @llvm.lifetime.end.p0(i64 8, ptr %3) #10
  ret i32 0
}