; Function Attrs: mustprogress nofree norecurse nosync nounwind willreturn memory(argmem: write) uwtable
define internal noundef i32 @config_output(ptr noundef writeonly captures(none) initializes((40, 56)) %0) #11 {
  %2 = getelementptr inbounds nuw i8, ptr %0, i64 44
  store i32 16, ptr %2, align 4, !tbaa !76
  %3 = getelementptr inbounds nuw i8, ptr %0, i64 40
  store i32 16, ptr %3, align 8, !tbaa !75
  %4 = getelementptr inbounds nuw i8, ptr %0, i64 48
  store i64 4294967297, ptr %4, align 8
  ret i32 0
}